target datalayout = "e-m:e-p270:32:32-p271:32:32-p272:64:64-i64:64-i128:128-f80:128-n8:16:32:64-S128"
target triple = "x86_64-pc-linux-gnu"

%"class.pxrInternal_v0_24__pxrReserved__::UsdTimeCode" = type { double }
%"class.pxrInternal_v0_24__pxrReserved__::UsdGeomXformCache" = type { %"class.pxrInternal_v0_24__pxrReserved__::TfHashMap", %"class.pxrInternal_v0_24__pxrReserved__::UsdTimeCode" }
%"class.pxrInternal_v0_24__pxrReserved__::TfHashMap" = type { %"class.std::unordered_map" }
%"class.std::unordered_map" = type { %"class.std::_Hashtable" }
%"class.std::_Hashtable" = type { ptr, i64, %"struct.std::__detail::_Hash_node_base", i64, %"struct.std::__detail::_Prime_rehash_policy", ptr }
%"struct.std::__detail::_Hash_node_base" = type { ptr }
%"struct.std::__detail::_Prime_rehash_policy" = type { float, i64 }

; Function Attrs: mustprogress nounwind uwtable
define linkonce_odr void @_ZNSt15__new_allocatorINSt8__detail10_Hash_nodeISt4pairIKN32pxrInternal_v0_24__pxrReserved__7UsdPrimENS3_17UsdGeomXformCache6_EntryEELb1EEEEC2Ev(ptr noundef nonnull align 1 dereferenceable(1) %0) unnamed_addr #1 comdat align 2 {
  %2 = alloca ptr, align 8
  store ptr %0, ptr %2, align 8
  ret void
}

; Function Attrs: mustprogress nounwind uwtable
define linkonce_odr void @_ZNSaINSt8__detail10_Hash_nodeISt4pairIKN32pxrInternal_v0_24__pxrReserved__7UsdPrimENS2_17UsdGeomXformCache6_EntryEELb1EEEEC2Ev(ptr noundef nonnull align 1 dereferenceable(1) %0) unnamed_addr #1 comdat align 2 {
  %2 = alloca ptr, align 8
  store ptr %0, ptr %2, align 8
  %3 = load ptr, ptr %2, align 8
  call void @_ZNSt15__new_allocatorINSt8__detail10_Hash_nodeISt4pairIKN32pxrInternal_v0_24__pxrReserved__7UsdPrimENS3_17UsdGeomXformCache6_EntryEELb1EEEEC2Ev(ptr noundef nonnull align 1 dereferenceable(1) %3) #6
  ret void
}

; Function Attrs: mustprogress nounwind uwtable
define linkonce_odr void @_ZNSt8__detail21_Hashtable_ebo_helperILi1EN32pxrInternal_v0_24__pxrReserved__6TfHashELb1EEC2Ev(ptr noundef nonnull align 1 dereferenceable(1) %0) unnamed_addr #1 comdat align 2 {
  %2 = alloca ptr, align 8
  store ptr %0, ptr %2, align 8
  ret void
}

; Function Attrs: mustprogress nounwind uwtable
define linkonce_odr void @_ZNSt8__detail21_Hashtable_ebo_helperILi0ESaINS_10_Hash_nodeISt4pairIKN32pxrInternal_v0_24__pxrReserved__7UsdPrimENS3_17UsdGeomXformCache6_EntryEELb1EEEELb1EEC2Ev(ptr noundef nonnull align 1 dereferenceable(1) %0) unnamed_addr #1 comdat align 2 {
  %2 = alloca ptr, align 8
  store ptr %0, ptr %2, align 8
  %3 = load ptr, ptr %2, align 8
  call void @_ZNSaINSt8__detail10_Hash_nodeISt4pairIKN32pxrInternal_v0_24__pxrReserved__7UsdPrimENS2_17UsdGeomXformCache6_EntryEELb1EEEEC2Ev(ptr noundef nonnull align 1 dereferenceable(1) %3) #6
  ret void
}

; Function Attrs: mustprogress nounwind uwtable
define linkonce_odr void @_ZNSt8__detail21_Hashtable_ebo_helperILi0ESt8equal_toIN32pxrInternal_v0_24__pxrReserved__7UsdPrimEELb1EEC2Ev(ptr noundef nonnull align 1 dereferenceable(1) %0) unnamed_addr #1 comdat align 2 {
  %2 = alloca ptr, align 8
  store ptr %0, ptr %2, align 8
  ret void
}

; Function Attrs: mustprogress nounwind uwtable
define linkonce_odr void @_ZNSt8__detail15_Hash_code_baseIN32pxrInternal_v0_24__pxrReserved__7UsdPrimESt4pairIKS2_NS1_17UsdGeomXformCache6_EntryEENS_10_Select1stENS1_6TfHashENS_18_Mod_range_hashingENS_20_Default_ranged_hashELb1EEC2Ev(ptr noundef nonnull align 1 dereferenceable(1) %0) unnamed_addr #1 comdat align 2 {
  %2 = alloca ptr, align 8
  store ptr %0, ptr %2, align 8
  %3 = load ptr, ptr %2, align 8
  call void @_ZNSt8__detail21_Hashtable_ebo_helperILi1EN32pxrInternal_v0_24__pxrReserved__6TfHashELb1EEC2Ev(ptr noundef nonnull align 1 dereferenceable(1) %3) #6
  ret void
}

; Function Attrs: mustprogress nounwind uwtable
define linkonce_odr void @_ZNSt8__detail20_Prime_rehash_policyC2Ef(ptr noundef nonnull align 8 dereferenceable(16) %0, float noundef %1) unnamed_addr #1 comdat align 2 {
  %3 = alloca ptr, align 8
  %4 = alloca float, align 4
  store ptr %0, ptr %3, align 8
  store float %1, ptr %4, align 4
  %5 = load ptr, ptr %3, align 8
  %6 = getelementptr inbounds nuw %"struct.std::__detail::_Prime_rehash_policy", ptr %5, i32 0, i32 0
  %7 = load float, ptr %4, align 4
  store float %7, ptr %6, align 8
  %8 = getelementptr inbounds nuw %"struct.std::__detail::_Prime_rehash_policy", ptr %5, i32 0, i32 1
  store i64 0, ptr %8, align 8
  ret void
}

; Function Attrs: mustprogress nounwind uwtable
define linkonce_odr void @_ZNSt8__detail15_Hash_node_baseC2Ev(ptr noundef nonnull align 8 dereferenceable(8) %0) unnamed_addr #1 comdat align 2 {
  %2 = alloca ptr, align 8
  store ptr %0, ptr %2, align 8
  %3 = load ptr, ptr %2, align 8
  %4 = getelementptr inbounds nuw %"struct.std::__detail::_Hash_node_base", ptr %3, i32 0, i32 0
  store ptr null, ptr %4, align 8
  ret void
}

; Function Attrs: mustprogress nounwind uwtable
define linkonce_odr void @_ZNSt8__detail16_Hashtable_allocISaINS_10_Hash_nodeISt4pairIKN32pxrInternal_v0_24__pxrReserved__7UsdPrimENS3_17UsdGeomXformCache6_EntryEELb1EEEEEC2Ev(ptr noundef nonnull align 1 dereferenceable(1) %0) unnamed_addr #1 comdat align 2 {
  %2 = alloca ptr, align 8
  store ptr %0, ptr %2, align 8
  %3 = load ptr, ptr %2, align 8
  call void @_ZNSt8__detail21_Hashtable_ebo_helperILi0ESaINS_10_Hash_nodeISt4pairIKN32pxrInternal_v0_24__pxrReserved__7UsdPrimENS3_17UsdGeomXformCache6_EntryEELb1EEEELb1EEC2Ev(ptr noundef nonnull align 1 dereferenceable(1) %3) #6
  ret void
}

; Function Attrs: mustprogress nounwind uwtable
define linkonce_odr void @_ZNSt8__detail15_Hashtable_baseIN32pxrInternal_v0_24__pxrReserved__7UsdPrimESt4pairIKS2_NS1_17UsdGeomXformCache6_EntryEENS_10_Select1stESt8equal_toIS2_ENS1_6TfHashENS_18_Mod_range_hashingENS_20_Default_ranged_hashENS_17_Hashtable_traitsILb1ELb0ELb1EEEEC2Ev(ptr noundef nonnull align 1 dereferenceable(1) %0) unnamed_addr #1 comdat align 2 {
  %2 = alloca ptr, align 8
  store ptr %0, ptr %2, align 8
  %3 = load ptr, ptr %2, align 8
  call void @_ZNSt8__detail15_Hash_code_baseIN32pxrInternal_v0_24__pxrReserved__7UsdPrimESt4pairIKS2_NS1_17UsdGeomXformCache6_EntryEENS_10_Select1stENS1_6TfHashENS_18_Mod_range_hashingENS_20_Default_ranged_hashELb1EEC2Ev(ptr noundef nonnull align 1 dereferenceable(1) %3) #6
  call void @_ZNSt8__detail21_Hashtable_ebo_helperILi0ESt8equal_toIN32pxrInternal_v0_24__pxrReserved__7UsdPrimEELb1EEC2Ev(ptr noundef nonnull align 1 dereferenceable(1) %3) #6
  ret void
}

; Function Attrs: mustprogress nounwind uwtable
define linkonce_odr void @_ZNSt10_HashtableIN32pxrInternal_v0_24__pxrReserved__7UsdPrimESt4pairIKS1_NS0_17UsdGeomXformCache6_EntryEESaIS6_ENSt8__detail10_Select1stESt8equal_toIS1_ENS0_6TfHashENS8_18_Mod_range_hashingENS8_20_Default_ranged_hashENS8_20_Prime_rehash_policyENS8_17_Hashtable_traitsILb1ELb0ELb1EEEEC2Ev(ptr noundef nonnull align 8 dereferenceable(56) %0) unnamed_addr #1 comdat align 2 {
  %2 = alloca ptr, align 8
  store ptr %0, ptr %2, align 8
  %3 = load ptr, ptr %2, align 8
  call void @_ZNSt8__detail15_Hashtable_baseIN32pxrInternal_v0_24__pxrReserved__7UsdPrimESt4pairIKS2_NS1_17UsdGeomXformCache6_EntryEENS_10_Select1stESt8equal_toIS2_ENS1_6TfHashENS_18_Mod_range_hashingENS_20_Default_ranged_hashENS_17_Hashtable_traitsILb1ELb0ELb1EEEEC2Ev(ptr noundef nonnull align 1 dereferenceable(1) %3) #6
  call void @_ZNSt8__detail16_Hashtable_allocISaINS_10_Hash_nodeISt4pairIKN32pxrInternal_v0_24__pxrReserved__7UsdPrimENS3_17UsdGeomXformCache6_EntryEELb1EEEEEC2Ev(ptr noundef nonnull align 1 dereferenceable(1) %3) #6
  %4 = getelementptr inbounds nuw %"class.std::_Hashtable", ptr %3, i32 0, i32 0
  %5 = getelementptr inbounds nuw %"class.std::_Hashtable", ptr %3, i32 0, i32 5
  store ptr %5, ptr %4, align 8
  %6 = getelementptr inbounds nuw %"class.std::_Hashtable", ptr %3, i32 0, i32 1
  store i64 1, ptr %6, align 8
  %7 = getelementptr inbounds nuw %"class.std::_Hashtable", ptr %3, i32 0, i32 2
  call void @_ZNSt8__detail15_Hash_node_baseC2Ev(ptr noundef nonnull align 8 dereferenceable(8) %7) #6
  %8 = getelementptr inbounds nuw %"class.std::_Hashtable", ptr %3, i32 0, i32 3
  store i64 0, ptr %8, align 8
  %9 = getelementptr inbounds nuw %"class.std::_Hashtable", ptr %3, i32 0, i32 4
  call void @_ZNSt8__detail20_Prime_rehash_policyC2Ef(ptr noundef nonnull align 8 dereferenceable(16) %9, float noundef 1.000000e+00) #6
  %10 = getelementptr inbounds nuw %"class.std::_Hashtable", ptr %3, i32 0, i32 5
  store ptr null, ptr %10, align 8
  ret void
}

; Function Attrs: mustprogress nounwind uwtable
define linkonce_odr void @_ZNSt13unordered_mapIN32pxrInternal_v0_24__pxrReserved__7UsdPrimENS0_17UsdGeomXformCache6_EntryENS0_6TfHashESt8equal_toIS1_ESaISt4pairIKS1_S3_EEEC2Ev(ptr noundef nonnull align 8 dereferenceable(56) %0) unnamed_addr #1 comdat align 2 {
  %2 = alloca ptr, align 8
  store ptr %0, ptr %2, align 8
  %3 = load ptr, ptr %2, align 8
  %4 = getelementptr inbounds nuw %"class.std::unordered_map", ptr %3, i32 0, i32 0
  call void @_ZNSt10_HashtableIN32pxrInternal_v0_24__pxrReserved__7UsdPrimESt4pairIKS1_NS0_17UsdGeomXformCache6_EntryEESaIS6_ENSt8__detail10_Select1stESt8equal_toIS1_ENS0_6TfHashENS8_18_Mod_range_hashingENS8_20_Default_ranged_hashENS8_20_Prime_rehash_policyENS8_17_Hashtable_traitsILb1ELb0ELb1EEEEC2Ev(ptr noundef nonnull align 8 dereferenceable(56) %4) #6
  ret void
}

; Function Attrs: mustprogress nounwind uwtable
define linkonce_odr void @_ZN32pxrInternal_v0_24__pxrReserved__9TfHashMapINS_7UsdPrimENS_17UsdGeomXformCache6_EntryENS_6TfHashESt8equal_toIS1_ESaISt4pairIKS1_S3_EEEC2Ev(ptr noundef nonnull align 8 dereferenceable(56) %0) unnamed_addr #1 comdat align 2 {
  %2 = alloca ptr, align 8
  store ptr %0, ptr %2, align 8
  %3 = load ptr, ptr %2, align 8
  %4 = getelementptr inbounds i8, ptr %3, i64 0
  call void @llvm.memset.p0.i64(ptr align 8 %4, i8 0, i64 56, i1 false)
  call void @_ZNSt13unordered_mapIN32pxrInternal_v0_24__pxrReserved__7UsdPrimENS0_17UsdGeomXformCache6_EntryENS0_6TfHashESt8equal_toIS1_ESaISt4pairIKS1_S3_EEEC2Ev(ptr noundef nonnull align 8 dereferenceable(56) %3) #6
  ret void
}

; Function Attrs: mustprogress uwtable
define void @_ZN32pxrInternal_v0_24__pxrReserved__17UsdGeomXformCacheC2ENS_11UsdTimeCodeE(ptr noundef nonnull align 8 dereferenceable(64) %0, double %1) unnamed_addr #0 align 2 {
  %3 = alloca %"class.pxrInternal_v0_24__pxrReserved__::UsdTimeCode", align 8
  %4 = alloca ptr, align 8
  %5 = getelementptr inbounds nuw %"class.pxrInternal_v0_24__pxrReserved__::UsdTimeCode", ptr %3, i32 0, i32 0
  store double %1, ptr %5, align 8
  store ptr %0, ptr %4, align 8
  %6 = load ptr, ptr %4, align 8
  %7 = getelementptr inbounds nuw %"class.pxrInternal_v0_24__pxrReserved__::UsdGeomXformCache", ptr %6, i32 0, i32 0
  call void @_ZN32pxrInternal_v0_24__pxrReserved__9TfHashMapINS_7UsdPrimENS_17UsdGeomXformCache6_EntryENS_6TfHashESt8equal_toIS1_ESaISt4pairIKS1_S3_EEEC2Ev(ptr noundef nonnull align 8 dereferenceable(56) %7)
  %8 = getelementptr inbounds nuw %"class.pxrInternal_v0_24__pxrReserved__::UsdGeomXformCache", ptr %6, i32 0, i32 1
  call void @llvm.memcpy.p0.p0.i64(ptr align 8 %8, ptr align 8 %3, i64 8, i1 false)
  ret void
}